Certificate:
    Data:
        Version: 3 (0x2)
        Serial Number: 2 (0x2)
        Signature Algorithm: sha256WithRSAEncryption
        Issuer: C=CN, ST=BEIJING, L=HAIDIAN, O=CHINASOFTI, OU=ZHANGXUN, CN=192.168.0.114/emailAddress=shixq3@gmail.com
        Validity
            Not Before: Nov 27 10:00:29 2018 GMT
            Not After : Nov 27 10:00:29 2019 GMT
        Subject: C=CN, ST=BEIJING, O=CHINASOFTI, OU=ZHANGXUN, CN=192.168.0.114/emailAddress=shixq3@gmail.com
        Subject Public Key Info:
            Public Key Algorithm: rsaEncryption
                RSA Public-Key: (1024 bit)
                Modulus:
                    00:a2:62:55:17:b2:d9:8f:4f:d5:81:78:49:a8:24:
                    16:af:a6:b8:15:08:01:e5:d9:62:b2:a1:c3:f6:de:
                    9b:4e:82:84:37:8a:70:53:dc:1b:e8:ec:c2:e1:75:
                    d6:83:91:8d:75:71:fb:88:e3:63:51:a9:0e:9c:a2:
                    ea:1f:a6:ac:cc:16:cf:2f:82:ce:48:e5:9c:4a:ca:
                    a5:de:84:30:a5:67:2a:64:fa:f1:02:59:08:29:a3:
                    ed:67:46:38:6d:94:56:0f:88:0f:67:08:d3:13:61:
                    18:66:ba:ff:21:5f:11:b8:fe:66:05:50:75:aa:2b:
                    cb:22:4c:4d:69:6e:6c:4a:5b
                Exponent: 65537 (0x10001)
        X509v3 extensions:
            X509v3 Basic Constraints: 
                CA:FALSE
            Netscape Comment: 
                OpenSSL Generated Certificate
            X509v3 Subject Key Identifier: 
                58:FC:78:70:F5:53:50:FC:4F:CC:9A:46:76:47:40:9A:C1:8F:FB:7A
            X509v3 Authority Key Identifier: 
                DirName:/C=CN/ST=BEIJING/L=HAIDIAN/O=CHINASOFTI/OU=ZHANGXUN/CN=192.168.0.114/emailAddress=shixq3@gmail.com
                serial:3E:E3:16:E6:9E:8D:FD:A6:BB:C9:A7:8D:4A:48:BF:34:FC:7E:DD:4D

    Signature Algorithm: sha256WithRSAEncryption
         2b:eb:b3:7b:b7:d7:91:49:7a:7d:88:98:05:23:4a:ba:a3:83:
         83:03:f1:aa:41:9c:96:ed:32:b1:50:7b:9d:0a:35:3f:ad:1a:
         b1:d5:43:81:f1:a7:be:73:67:2f:43:90:08:4d:05:c5:26:b6:
         e5:39:7a:57:1a:c3:15:8e:51:6e:2e:a4:8e:48:83:15:8c:3e:
         5f:59:12:52:fe:e8:41:d5:61:a6:03:1a:7b:0e:0a:02:83:3a:
         81:92:7f:85:71:f9:05:ca:c5:79:c7:18:52:ab:5e:f0:5b:2e:
         90:c7:48:d8:f0:73:fb:96:5a:a4:6f:1a:e8:03:5b:90:40:11:
         3f:9f:58:68:78:5c:6a:b0:11:b9:e6:a6:07:92:4b:48:92:2c:
         fa:7c:eb:00:5d:46:87:2b:77:e0:dd:5e:03:2a:0e:ba:fa:cc:
         ae:ee:bc:9e:86:2a:56:d7:bb:e1:ab:8f:43:65:3b:a0:b1:3a:
         c2:99:15:6b:f1:11:45:1a:80:5b:b2:77:ca:3f:b2:61:b1:77:
         c9:70:9c:fc:3d:fc:62:d1:65:e5:7a:10:64:ec:70:06:04:e8:
         55:3e:89:57:cf:76:45:c8:48:8a:61:d6:0e:b3:54:f0:af:3a:
         d0:2a:60:a7:08:b2:16:5b:ff:35:0d:e8:c8:20:dc:12:70:75:
         64:66:ac:21
-----BEGIN CERTIFICATE-----
MIIEKDCCAxCgAwIBAgIBAjANBgkqhkiG9w0BAQsFADCBkjELMAkGA1UEBhMCQ04x
EDAOBgNVBAgMB0JFSUpJTkcxEDAOBgNVBAcMB0hBSURJQU4xEzARBgNVBAoMCkNI
SU5BU09GVEkxETAPBgNVBAsMCFpIQU5HWFVOMRYwFAYDVQQDDA0xOTIuMTY4LjAu
MTE0MR8wHQYJKoZIhvcNAQkBFhBzaGl4cTNAZ21haWwuY29tMB4XDTE4MTEyNzEw
MDAyOVoXDTE5MTEyNzEwMDAyOVowgYAxCzAJBgNVBAYTAkNOMRAwDgYDVQQIDAdC
RUlKSU5HMRMwEQYDVQQKDApDSElOQVNPRlRJMREwDwYDVQQLDAhaSEFOR1hVTjEW
MBQGA1UEAwwNMTkyLjE2OC4wLjExNDEfMB0GCSqGSIb3DQEJARYQc2hpeHEzQGdt
YWlsLmNvbTCBnzANBgkqhkiG9w0BAQEFAAOBjQAwgYkCgYEAomJVF7LZj0/VgXhJ
qCQWr6a4FQgB5dlisqHD9t6bToKEN4pwU9wb6OzC4XXWg5GNdXH7iONjUakOnKLq
H6aszBbPL4LOSOWcSsql3oQwpWcqZPrxAlkIKaPtZ0Y4bZRWD4gPZwjTE2EYZrr/
IV8RuP5mBVB1qivLIkxNaW5sSlsCAwEAAaOCARswggEXMAkGA1UdEwQCMAAwLAYJ
YIZIAYb4QgENBB8WHU9wZW5TU0wgR2VuZXJhdGVkIENlcnRpZmljYXRlMB0GA1Ud
DgQWBBRY/Hhw9VNQ/E/MmkZ2R0CawY/7ejCBvAYDVR0jBIG0MIGxoYGYpIGVMIGS
MQswCQYDVQQGEwJDTjEQMA4GA1UECAwHQkVJSklORzEQMA4GA1UEBwwHSEFJRElB
TjETMBEGA1UECgwKQ0hJTkFTT0ZUSTERMA8GA1UECwwIWkhBTkdYVU4xFjAUBgNV
BAMMDTE5Mi4xNjguMC4xMTQxHzAdBgkqhkiG9w0BCQEWEHNoaXhxM0BnbWFpbC5j
b22CFD7jFuaejf2mu8mnjUpIvzT8ft1NMA0GCSqGSIb3DQEBCwUAA4IBAQAr67N7
t9eRSXp9iJgFI0q6o4ODA/GqQZyW7TKxUHudCjU/rRqx1UOB8ae+c2cvQ5AITQXF
JrblOXpXGsMVjlFuLqSOSIMVjD5fWRJS/uhB1WGmAxp7DgoCgzqBkn+FcfkFysV5
xxhSq17wWy6Qx0jY8HP7llqkbxroA1uQQBE/n1hoeFxqsBG55qYHkktIkiz6fOsA
XUaHK3fg3V4DKg66+syu7ryehipW17vhq49DZTugsTrCmRVr8RFFGoBbsnfKP7Jh
sXfJcJz8Pfxi0WXlehBk7HAGBOhVPolXz3ZFyEiKYdYOs1TwrzrQKmCnCLIWW/81
DejIINwScHVkZqwh
-----END CERTIFICATE-----
-----BEGIN RSA PRIVATE KEY-----
Proc-Type: 4,ENCRYPTED
DEK-Info: DES-EDE3-CBC,EE5099104744DF20

/zpybG6DTzMd7WzfbzHyn/7ZuuGeYDDVmqlQYeQOYGyAbDESrsh+RgtlxPcPUP5b
YZ61kaB40ZT2cug3YDA6dVuEgo+mSPdKDJgz98L7TxIMEfOqFIbYcpauHvmD5Whh
eKhUXeEit/PUEnHAvy+HIqKSP2d00ZdhbGBixZ61orjhPiOablG1kKYJy8vc3e0i
62hoNleoVAZoJfAn/mzG8JYl8FzBCsnlRRS6m0ESGnSGrgGeXN7XEWtNTFLq6c1o
95xuqB+LYJ581wzvi2P9EcoGxBW0691GI/suh9tNMNfb7nqLeKlRp/8GzHYQLSAR
pdOjeq9I5PdDGDj69V54oH1eCIAlY7wjPkmM/q5SXzrCZh9eNKNNglFYq+CJC9Ge
IBouYbHdCUFv8kY8yuKN3LKbKFi9ns5Reoa1QdaWSXRegMT+PsQFxPFwqIPwcW9C
0ehRx0A+MpgLnwvzog0aBZBbfaHXO5wbz/JELKKCEwrKWyDsrQ4stPqRi8nrFTwi
+Jgs9ZWk23XryJkJ8+nM5+Ymqciph1MpSZYFEnKuwE8CCOIZdyjk7tMRo5MVe30Y
RtecEGrRShdIehqJZgSqmeju1rgMG526YEVCGSoKIWAj3B27ct5zwmkvO/bj2UMQ
WKL7SecLrcCpgpjxTZONa0BdefZmk36hR66luZ1fJ5N4sW4PW6CzTa4MOg/0dqPw
suS8R7CeEku6mcgUkc2KrMkoynh97OlxSDIMwMfppyMypnVuJ/D7wf5/AIxiPGjd
QDDqMLTVhrt5U/ksTNqCNprwRzTJI+vsTB9o2VjkyinbeOGT83uzFQ==
-----END RSA PRIVATE KEY-----
